; Function Attrs: mustprogress uwtable
define noundef zeroext i1 @_ZN2cv6detail8tracking25TrackerContribFeatureHAAR11swapFeatureEiRNS1_15contrib_feature15CvHaarEvaluator11FeatureHaarE(ptr noundef nonnull readonly align 8 captures(none) dereferenceable(72) %0, i32 noundef %1, ptr noundef nonnull align 8 dereferenceable(136) %2) local_unnamed_addr #6 align 2 {
  %4 = getelementptr inbounds nuw i8, ptr %0, i64 56
  %5 = load ptr, ptr %4, align 8, !tbaa !80
  %6 = getelementptr inbounds nuw i8, ptr %5, i64 240
  %7 = sext i32 %1 to i64
  %8 = load ptr, ptr %6, align 8, !tbaa !82
  %9 = getelementptr inbounds nuw %"class.cv::detail::tracking::contrib_feature::CvHaarEvaluator::FeatureHaar", ptr %8, i64 %7
  %10 = load i64, ptr %2, align 8
  store i64 %10, ptr %9, align 8
  %11 = getelementptr inbounds nuw i8, ptr %9, i64 8
  %12 = getelementptr inbounds nuw i8, ptr %2, i64 8
  %13 = tail call noundef nonnull align 8 dereferenceable(24) ptr @_ZNSt6vectorIfSaIfEEaSERKS1_(ptr noundef nonnull align 8 dereferenceable(24) %11, ptr noundef nonnull align 8 dereferenceable(24) %12)
  %14 = getelementptr inbounds nuw i8, ptr %9, i64 32
  %15 = getelementptr inbounds nuw i8, ptr %2, i64 32
  %16 = load i64, ptr %15, align 8
  store i64 %16, ptr %14, align 8
  %17 = getelementptr inbounds nuw i8, ptr %9, i64 40
  %18 = getelementptr inbounds nuw i8, ptr %2, i64 40
  %19 = tail call noundef nonnull align 8 dereferenceable(24) ptr @_ZNSt6vectorIN2cv5Rect_IiEESaIS2_EEaSERKS4_(ptr noundef nonnull align 8 dereferenceable(24) %17, ptr noundef nonnull align 8 dereferenceable(24) %18)
  %20 = getelementptr inbounds nuw i8, ptr %9, i64 64
  %21 = getelementptr inbounds nuw i8, ptr %2, i64 64
  tail call void @llvm.memcpy.p0.p0.i64(ptr noundef nonnull align 8 dereferenceable(24) %20, ptr noundef nonnull align 8 dereferenceable(24) %21, i64 24, i1 false)
  %22 = getelementptr inbounds nuw i8, ptr %9, i64 88
  %23 = getelementptr inbounds nuw i8, ptr %2, i64 88
  %24 = tail call noundef nonnull align 8 dereferenceable(24) ptr @_ZNSt6vectorIN2cv5Rect_IiEESaIS2_EEaSERKS4_(ptr noundef nonnull align 8 dereferenceable(24) %22, ptr noundef nonnull align 8 dereferenceable(24) %23)
  %25 = getelementptr inbounds nuw i8, ptr %9, i64 112
  %26 = getelementptr inbounds nuw i8, ptr %2, i64 112
  %27 = tail call noundef nonnull align 8 dereferenceable(24) ptr @_ZNSt6vectorIfSaIfEEaSERKS1_(ptr noundef nonnull align 8 dereferenceable(24) %25, ptr noundef nonnull align 8 dereferenceable(24) %26)
  ret i1 true
}